target datalayout = "e-m:e-p270:32:32-p271:32:32-p272:64:64-i64:64-i128:128-f80:128-n8:16:32:64-S128"
target triple = "x86_64-pc-linux-gnu"

%struct.ldbState = type { ptr, i32, i32, ptr, ptr, ptr, [64 x i32], i32, i32, i32, ptr, i32, i32, ptr, i64, i32 }

@ldb = dso_local global %struct.ldbState zeroinitializer, align 8

; Function Attrs: nounwind uwtable
define dso_local i32 @ldbDelBreakpoint(i32 noundef %0) #0 {
  %2 = alloca i32, align 4
  %3 = alloca i32, align 4
  %4 = alloca i32, align 4
  %5 = alloca i32, align 4
  store i32 %0, ptr %3, align 4, !tbaa !19
  call void @llvm.lifetime.start.p0(i64 4, ptr %4) #14
  store i32 0, ptr %4, align 4, !tbaa !19
  br label %6

6:                                                ; preds = %32, %1
  %7 = load i32, ptr %4, align 4, !tbaa !19
  %8 = load i32, ptr getelementptr inbounds nuw (%struct.ldbState, ptr @ldb, i32 0, i32 7), align 8, !tbaa !153
  %9 = icmp slt i32 %7, %8
  br i1 %9, label %10, label %35

10:                                               ; preds = %6
  %11 = load i32, ptr %4, align 4, !tbaa !19
  %12 = sext i32 %11 to i64
  %13 = getelementptr inbounds [64 x i32], ptr getelementptr inbounds nuw (%struct.ldbState, ptr @ldb, i32 0, i32 6), i64 0, i64 %12
  %14 = load i32, ptr %13, align 4, !tbaa !19
  %15 = load i32, ptr %3, align 4, !tbaa !19
  %16 = icmp eq i32 %14, %15
  br i1 %16, label %17, label %31

17:                                               ; preds = %10
  %18 = load i32, ptr getelementptr inbounds nuw (%struct.ldbState, ptr @ldb, i32 0, i32 7), align 8, !tbaa !153
  %19 = add nsw i32 %18, -1
  store i32 %19, ptr getelementptr inbounds nuw (%struct.ldbState, ptr @ldb, i32 0, i32 7), align 8, !tbaa !153
  %20 = load i32, ptr %4, align 4, !tbaa !19
  %21 = sext i32 %20 to i64
  %22 = getelementptr inbounds i32, ptr getelementptr inbounds nuw (%struct.ldbState, ptr @ldb, i32 0, i32 6), i64 %21
  %23 = load i32, ptr %4, align 4, !tbaa !19
  %24 = sext i32 %23 to i64
  %25 = getelementptr inbounds i32, ptr getelementptr inbounds nuw (%struct.ldbState, ptr @ldb, i32 0, i32 6), i64 %24
  %26 = getelementptr inbounds i32, ptr %25, i64 1
  %27 = load i32, ptr getelementptr inbounds nuw (%struct.ldbState, ptr @ldb, i32 0, i32 7), align 8, !tbaa !153
  %28 = load i32, ptr %4, align 4, !tbaa !19
  %29 = sub nsw i32 %27, %28
  %30 = sext i32 %29 to i64
  call void @llvm.memmove.p0.p0.i64(ptr align 4 %22, ptr align 4 %26, i64 %30, i1 false)
  store i32 1, ptr %2, align 4
  store i32 1, ptr %5, align 4
  br label %36

31:                                               ; preds = %10
  br label %32

32:                                               ; preds = %31
  %33 = load i32, ptr %4, align 4, !tbaa !19
  %34 = add nsw i32 %33, 1
  store i32 %34, ptr %4, align 4, !tbaa !19
  br label %6, !llvm.loop !170

35:                                               ; preds = %6
  store i32 0, ptr %2, align 4
  store i32 1, ptr %5, align 4
  br label %36

36:                                               ; preds = %35, %17
  call void @llvm.lifetime.end.p0(i64 4, ptr %4) #14
  %37 = load i32, ptr %2, align 4
  ret i32 %37
}