; Function Attrs: nofree norecurse nosync nounwind memory(readwrite, argmem: none, inaccessiblemem: none) uwtable
define dso_local range(i32 0, 2) i32 @ldbDelBreakpoint(i32 noundef %0) local_unnamed_addr #15 {
  %2 = load i32, ptr getelementptr inbounds nuw (i8, ptr @ldb, i64 296), align 8, !tbaa !140
  %3 = icmp sgt i32 %2, 0
  br i1 %3, label %.lr.ph.preheader, label %.loopexit

.lr.ph.preheader:                                 ; preds = %1
  %wide.trip.count = zext nneg i32 %2 to i64
  br label %.lr.ph

.lr.ph:                                           ; preds = %.lr.ph.preheader, %14
  %indvars.iv = phi i64 [ 0, %.lr.ph.preheader ], [ %indvars.iv.next, %14 ]
  %4 = getelementptr inbounds nuw [64 x i32], ptr getelementptr inbounds nuw (i8, ptr @ldb, i64 40), i64 0, i64 %indvars.iv
  %5 = load i32, ptr %4, align 4, !tbaa !91
  %6 = icmp eq i32 %5, %0
  br i1 %6, label %7, label %14

7:                                                ; preds = %.lr.ph
  %8 = getelementptr inbounds nuw [64 x i32], ptr getelementptr inbounds nuw (i8, ptr @ldb, i64 40), i64 0, i64 %indvars.iv
  %9 = trunc nuw nsw i64 %indvars.iv to i32
  %10 = add nsw i32 %2, -1
  store i32 %10, ptr getelementptr inbounds nuw (i8, ptr @ldb, i64 296), align 8, !tbaa !140
  %11 = getelementptr inbounds nuw i8, ptr %8, i64 4
  %12 = sub nsw i32 %10, %9
  %13 = sext i32 %12 to i64
  tail call void @llvm.memmove.p0.p0.i64(ptr nonnull align 4 %8, ptr nonnull align 4 %11, i64 %13, i1 false)
  br label %.loopexit

14:                                               ; preds = %.lr.ph
  %indvars.iv.next = add nuw nsw i64 %indvars.iv, 1
  %exitcond.not = icmp eq i64 %indvars.iv.next, %wide.trip.count
  br i1 %exitcond.not, label %.loopexit, label %.lr.ph, !llvm.loop !155

.loopexit:                                        ; preds = %14, %1, %7
  %.08 = phi i32 [ 1, %7 ], [ 0, %1 ], [ 0, %14 ]
  ret i32 %.08
}